Certificate:
    Data:
        Version: 3 (0x2)
        Serial Number: 4661 (0x1235)
        Signature Algorithm: sha256WithRSAEncryption
        Issuer: C=JM, ST=KINGSTON, L=KINGSTON, O=Csware, CN=csware.net/emailAddress=admin@csware.net
        Validity
            Not Before: May 17 20:37:58 2020 GMT
            Not After : May 15 20:37:58 2030 GMT
        Subject: C=JM, ST=KINGSTON, O=Csware, OU=Aspire Applications, CN=csware.net/emailAddress=admin@csware.net
        Subject Public Key Info:
            Public Key Algorithm: rsaEncryption
                RSA Public-Key: (2048 bit)
                Modulus:
                    00:c2:39:d5:a7:9f:6c:16:23:86:c1:2c:5f:cf:39:
                    d3:3b:3d:42:ec:fd:ea:5d:b8:38:fc:0e:48:59:b1:
                    74:41:55:12:a4:0c:09:62:5f:27:f8:74:c0:be:95:
                    1f:09:09:85:ed:fd:5a:80:ce:a6:f4:2e:cb:d9:cc:
                    6d:48:11:b4:2d:61:6c:05:3f:40:ba:40:95:15:f9:
                    5d:3b:17:e8:e1:ee:c2:95:b2:d3:c9:89:b9:91:9b:
                    dc:cf:04:37:12:1c:9b:ba:db:a3:15:22:a6:e4:43:
                    98:24:df:3c:5a:79:e0:d4:0e:f8:d0:0f:1a:ee:36:
                    35:ed:01:b1:86:c4:71:8b:0c:3b:09:10:05:a0:d9:
                    eb:06:cc:ed:e9:d6:dd:4e:53:59:c6:e2:15:f0:e6:
                    d0:19:cc:9d:4b:43:eb:e8:cd:8f:29:ae:a8:87:3b:
                    49:db:2d:ad:fb:1c:16:f1:fb:b0:53:96:78:30:6b:
                    d3:e8:40:fe:48:1d:53:a3:f2:08:9d:4d:d2:35:f9:
                    a0:35:d7:d0:b9:93:b2:4f:d7:ea:4e:ea:5e:aa:1f:
                    eb:3a:27:88:df:d0:16:25:fe:cf:16:f1:b7:5a:76:
                    58:92:99:12:11:62:68:93:f5:71:93:65:63:d9:2d:
                    03:63:f9:9d:3d:e3:0f:a4:62:27:97:70:c7:67:b1:
                    f4:b3
                Exponent: 65537 (0x10001)
        X509v3 extensions:
            X509v3 Basic Constraints: 
                CA:FALSE
            Netscape Comment: 
                OpenSSL Generated Certificate
            X509v3 Subject Key Identifier: 
                AC:5E:05:C5:5C:2F:EF:07:09:75:86:DA:80:FA:62:02:CD:14:1D:C3
            X509v3 Authority Key Identifier: 
                keyid:08:9B:A9:EE:E8:F9:14:0C:AD:46:34:E8:F8:0A:72:63:BA:17:8E:8B

    Signature Algorithm: sha256WithRSAEncryption
         2f:76:dc:e3:5a:73:e6:a1:bb:9a:46:1a:c2:f9:ac:69:c1:58:
         40:f1:5c:43:52:d4:a2:aa:39:de:89:5b:42:18:39:c2:fd:b1:
         dc:7c:b0:36:70:3b:84:11:3f:2c:c8:64:19:f5:63:d9:a1:c6:
         80:43:ed:d1:b5:79:2d:90:1a:f9:e2:b1:28:05:9d:8c:91:a8:
         63:87:14:c6:6c:33:13:8c:18:01:8a:d0:5e:4c:ca:af:33:84:
         4b:8c:57:85:bb:a2:51:c4:bc:96:b7:91:36:6d:a1:32:45:3d:
         04:6f:33:ba:c3:27:8f:53:4f:9c:b6:70:58:fa:9c:40:81:77:
         81:c8:12:b3:c2:74:5b:11:71:95:07:47:ee:e6:2d:1a:99:c7:
         5c:69:b2:7e:00:c4:d1:81:14:62:ea:14:f3:cf:4d:74:60:01:
         e4:01:53:f8:42:cb:72:a3:70:71:18:2c:3e:d8:1b:98:c1:7c:
         b3:e0:91:99:5c:67:41:9a:85:81:e5:04:56:b1:dd:44:93:91:
         82:3d:7e:e5:5e:1a:f8:f3:45:91:7c:33:b2:3f:6c:4b:e9:f6:
         8c:75:b9:31:9d:a0:59:76:59:5c:7f:67:53:b4:f1:6b:6d:e8:
         18:56:c7:7d:f9:3a:6b:c4:22:a8:87:1c:08:9c:fc:b5:1d:4d:
         ef:01:bd:95:b2:57:a0:0a:d3:80:63:a8:c4:2e:7c:68:a6:c4:
         cc:7c:16:ae:5a:8a:85:44:ae:91:5c:28:05:3b:d9:1c:4f:7b:
         66:d1:4d:42:65:30:4e:07:96:bd:0a:e4:99:d5:2f:46:71:cc:
         84:8a:2d:3c:df:11:c5:17:c3:7b:1c:2c:4d:e9:f5:14:f7:04:
         b5:ef:aa:07:18:7e:65:83:4f:79:ea:1b:db:07:0d:79:4f:22:
         f8:cb:e4:f1:d2:0b:37:b0:1e:7b:a6:f2:51:80:a2:38:c5:e9:
         15:65:5f:bd:bb:27:da:86:ec:ee:60:23:a3:d2:fe:35:29:0c:
         c2:a7:09:87:91:52:d9:42:8a:d9:4f:64:19:a1:c8:0e:22:2d:
         29:6e:d5:ef:b4:93:88:18:57:81:ea:98:fa:a0:0c:b2:44:c5:
         a6:08:9f:fb:9c:91:a1:17:a4:09:6b:1e:b8:1a:4e:fa:8f:e9:
         c6:5f:71:0d:1e:f0:46:c6:b5:7c:a5:40:39:65:02:f4:7b:a2:
         65:3f:b9:49:8b:79:a0:16:34:e8:3a:0a:94:fe:9a:23:9d:c7:
         cd:2a:73:68:7d:2a:a4:80:fc:2e:67:93:91:2d:65:9f:7e:58:
         41:a5:74:c2:e3:98:3a:bf:78:4f:30:90:89:aa:18:5f:92:d6:
         e8:3a:04:30:50:0f:4e:36
-----BEGIN CERTIFICATE-----
MIIE9zCCAt+gAwIBAgICEjUwDQYJKoZIhvcNAQELBQAwejELMAkGA1UEBhMCSk0x
ETAPBgNVBAgMCEtJTkdTVE9OMREwDwYDVQQHDAhLSU5HU1RPTjEPMA0GA1UECgwG
Q3N3YXJlMRMwEQYDVQQDDApjc3dhcmUubmV0MR8wHQYJKoZIhvcNAQkBFhBhZG1p
bkBjc3dhcmUubmV0MB4XDTIwMDUxNzIwMzc1OFoXDTMwMDUxNTIwMzc1OFowgYUx
CzAJBgNVBAYTAkpNMREwDwYDVQQIDAhLSU5HU1RPTjEPMA0GA1UECgwGQ3N3YXJl
MRwwGgYDVQQLDBNBc3BpcmUgQXBwbGljYXRpb25zMRMwEQYDVQQDDApjc3dhcmUu
bmV0MR8wHQYJKoZIhvcNAQkBFhBhZG1pbkBjc3dhcmUubmV0MIIBIjANBgkqhkiG
9w0BAQEFAAOCAQ8AMIIBCgKCAQEAwjnVp59sFiOGwSxfzznTOz1C7P3qXbg4/A5I
WbF0QVUSpAwJYl8n+HTAvpUfCQmF7f1agM6m9C7L2cxtSBG0LWFsBT9AukCVFfld
Oxfo4e7ClbLTyYm5kZvczwQ3EhybutujFSKm5EOYJN88Wnng1A740A8a7jY17QGx
hsRxiww7CRAFoNnrBszt6dbdTlNZxuIV8ObQGcydS0Pr6M2PKa6ohztJ2y2t+xwW
8fuwU5Z4MGvT6ED+SB1To/IInU3SNfmgNdfQuZOyT9fqTupeqh/rOieI39AWJf7P
FvG3WnZYkpkSEWJok/Vxk2Vj2S0DY/mdPeMPpGInl3DHZ7H0swIDAQABo3sweTAJ
BgNVHRMEAjAAMCwGCWCGSAGG+EIBDQQfFh1PcGVuU1NMIEdlbmVyYXRlZCBDZXJ0
aWZpY2F0ZTAdBgNVHQ4EFgQUrF4FxVwv7wcJdYbagPpiAs0UHcMwHwYDVR0jBBgw
FoAUCJup7uj5FAytRjTo+ApyY7oXjoswDQYJKoZIhvcNAQELBQADggIBAC923ONa
c+ahu5pGGsL5rGnBWEDxXENS1KKqOd6JW0IYOcL9sdx8sDZwO4QRPyzIZBn1Y9mh
xoBD7dG1eS2QGvnisSgFnYyRqGOHFMZsMxOMGAGK0F5Myq8zhEuMV4W7olHEvJa3
kTZtoTJFPQRvM7rDJ49TT5y2cFj6nECBd4HIErPCdFsRcZUHR+7mLRqZx1xpsn4A
xNGBFGLqFPPPTXRgAeQBU/hCy3KjcHEYLD7YG5jBfLPgkZlcZ0GahYHlBFax3UST
kYI9fuVeGvjzRZF8M7I/bEvp9ox1uTGdoFl2WVx/Z1O08Wtt6BhWx335OmvEIqiH
HAic/LUdTe8BvZWyV6AK04BjqMQufGimxMx8Fq5aioVErpFcKAU72RxPe2bRTUJl
ME4Hlr0K5JnVL0ZxzISKLTzfEcUXw3scLE3p9RT3BLXvqgcYfmWDT3nqG9sHDXlP
IvjL5PHSCzewHnum8lGAojjF6RVlX727J9qG7O5gI6PS/jUpDMKnCYeRUtlCitlP
ZBmhyA4iLSlu1e+0k4gYV4HqmPqgDLJExaYIn/uckaEXpAlrHrgaTvqP6cZfcQ0e
8EbGtXylQDllAvR7omU/uUmLeaAWNOg6CpT+miOdx80qc2h9KqSA/C5nk5EtZZ9+
WEGldMLjmDq/eE8wkImqGF+S1ug6BDBQD042
-----END CERTIFICATE-----
